target datalayout = "e-m:e-p270:32:32-p271:32:32-p272:64:64-i64:64-i128:128-f80:128-n8:16:32:64-S128"
target triple = "x86_64-pc-linux-gnu"

%struct.expert_field = type { i32, i32 }

@ei_nas_5gs_extraneous_data = internal global %struct.expert_field zeroinitializer, align 4
@.str.1703 = private unnamed_addr constant [27 x i8] c" - Partially allowed NSSAI\00", align 1
@.str.1704 = private unnamed_addr constant [28 x i8] c" - Partially rejected NSSAI\00", align 1

; Function Attrs: null_pointer_is_valid sspstrong uwtable
define internal zeroext i16 @de_nas_5gs_mm_type_6_ie_cont(ptr noundef %0, ptr noundef %1, ptr noundef %2, i32 noundef %3, i32 noundef %4, ptr noundef %5, i32 noundef %6) #0 {
  %8 = alloca i16, align 2
  %9 = alloca ptr, align 8
  %10 = alloca ptr, align 8
  %11 = alloca ptr, align 8
  %12 = alloca i32, align 4
  %13 = alloca i32, align 4
  %14 = alloca ptr, align 8
  %15 = alloca i32, align 4
  %16 = alloca i32, align 4
  %17 = alloca i32, align 4
  %18 = alloca i32, align 4
  %19 = alloca i32, align 4
  store ptr %0, ptr %9, align 8
  store ptr %1, ptr %10, align 8
  store ptr %2, ptr %11, align 8
  store i32 %3, ptr %12, align 4
  store i32 %4, ptr %13, align 4
  store ptr %5, ptr %14, align 8
  store i32 %6, ptr %15, align 4
  call void @llvm.lifetime.start.p0(i64 4, ptr %16) #11
  call void @llvm.lifetime.start.p0(i64 4, ptr %17) #11
  call void @llvm.lifetime.start.p0(i64 4, ptr %18) #11
  %20 = load i32, ptr %12, align 4
  store i32 %20, ptr %16, align 4
  %21 = load i32, ptr %13, align 4
  store i32 %21, ptr %18, align 4
  %22 = load i32, ptr %18, align 4
  %23 = icmp sle i32 %22, 0
  br i1 %23, label %24, label %27

24:                                               ; preds = %7
  %25 = load i32, ptr %13, align 4
  %26 = trunc i32 %25 to i16
  store i16 %26, ptr %8, align 2
  store i32 1, ptr %19, align 4
  br label %127

27:                                               ; preds = %7
  %28 = load ptr, ptr %9, align 8
  %29 = load ptr, ptr %10, align 8
  %30 = load ptr, ptr %11, align 8
  %31 = load i32, ptr %16, align 4
  %32 = load i32, ptr %18, align 4
  %33 = call zeroext i16 @elem_tlv_e(ptr noundef %28, ptr noundef %29, ptr noundef %30, i8 noundef zeroext 1, i32 noundef 17, i32 noundef 100, i32 noundef %31, i32 noundef %32, ptr noundef null)
  %34 = zext i16 %33 to i32
  store i32 %34, ptr %17, align 4
  %35 = icmp ugt i32 %34, 0
  br i1 %35, label %36, label %43

36:                                               ; preds = %27
  %37 = load i32, ptr %17, align 4
  %38 = load i32, ptr %16, align 4
  %39 = add i32 %38, %37
  store i32 %39, ptr %16, align 4
  %40 = load i32, ptr %17, align 4
  %41 = load i32, ptr %18, align 4
  %42 = sub i32 %41, %40
  store i32 %42, ptr %18, align 4
  br label %43

43:                                               ; preds = %36, %27
  %44 = load i32, ptr %18, align 4
  %45 = icmp sle i32 %44, 0
  br i1 %45, label %46, label %49

46:                                               ; preds = %43
  %47 = load i32, ptr %13, align 4
  %48 = trunc i32 %47 to i16
  store i16 %48, ptr %8, align 2
  store i32 1, ptr %19, align 4
  br label %127

49:                                               ; preds = %43
  %50 = load ptr, ptr %9, align 8
  %51 = load ptr, ptr %10, align 8
  %52 = load ptr, ptr %11, align 8
  %53 = load i32, ptr %16, align 4
  %54 = load i32, ptr %18, align 4
  %55 = call zeroext i16 @elem_tlv_e(ptr noundef %50, ptr noundef %51, ptr noundef %52, i8 noundef zeroext 2, i32 noundef 17, i32 noundef 104, i32 noundef %53, i32 noundef %54, ptr noundef null)
  %56 = zext i16 %55 to i32
  store i32 %56, ptr %17, align 4
  %57 = icmp ugt i32 %56, 0
  br i1 %57, label %58, label %65

58:                                               ; preds = %49
  %59 = load i32, ptr %17, align 4
  %60 = load i32, ptr %16, align 4
  %61 = add i32 %60, %59
  store i32 %61, ptr %16, align 4
  %62 = load i32, ptr %17, align 4
  %63 = load i32, ptr %18, align 4
  %64 = sub i32 %63, %62
  store i32 %64, ptr %18, align 4
  br label %65

65:                                               ; preds = %58, %49
  %66 = load i32, ptr %18, align 4
  %67 = icmp sle i32 %66, 0
  br i1 %67, label %68, label %71

68:                                               ; preds = %65
  %69 = load i32, ptr %13, align 4
  %70 = trunc i32 %69 to i16
  store i16 %70, ptr %8, align 2
  store i32 1, ptr %19, align 4
  br label %127

71:                                               ; preds = %65
  %72 = load ptr, ptr %9, align 8
  %73 = load ptr, ptr %10, align 8
  %74 = load ptr, ptr %11, align 8
  %75 = load i32, ptr %16, align 4
  %76 = load i32, ptr %18, align 4
  %77 = call zeroext i16 @elem_tlv_e(ptr noundef %72, ptr noundef %73, ptr noundef %74, i8 noundef zeroext 3, i32 noundef 17, i32 noundef 107, i32 noundef %75, i32 noundef %76, ptr noundef @.str.1703)
  %78 = zext i16 %77 to i32
  store i32 %78, ptr %17, align 4
  %79 = icmp ugt i32 %78, 0
  br i1 %79, label %80, label %87

80:                                               ; preds = %71
  %81 = load i32, ptr %17, align 4
  %82 = load i32, ptr %16, align 4
  %83 = add i32 %82, %81
  store i32 %83, ptr %16, align 4
  %84 = load i32, ptr %17, align 4
  %85 = load i32, ptr %18, align 4
  %86 = sub i32 %85, %84
  store i32 %86, ptr %18, align 4
  br label %87

87:                                               ; preds = %80, %71
  %88 = load i32, ptr %18, align 4
  %89 = icmp sle i32 %88, 0
  br i1 %89, label %90, label %93

90:                                               ; preds = %87
  %91 = load i32, ptr %13, align 4
  %92 = trunc i32 %91 to i16
  store i16 %92, ptr %8, align 2
  store i32 1, ptr %19, align 4
  br label %127

93:                                               ; preds = %87
  %94 = load ptr, ptr %9, align 8
  %95 = load ptr, ptr %10, align 8
  %96 = load ptr, ptr %11, align 8
  %97 = load i32, ptr %16, align 4
  %98 = load i32, ptr %18, align 4
  %99 = call zeroext i16 @elem_tlv_e(ptr noundef %94, ptr noundef %95, ptr noundef %96, i8 noundef zeroext 4, i32 noundef 17, i32 noundef 107, i32 noundef %97, i32 noundef %98, ptr noundef @.str.1704)
  %100 = zext i16 %99 to i32
  store i32 %100, ptr %17, align 4
  %101 = icmp ugt i32 %100, 0
  br i1 %101, label %102, label %109

102:                                              ; preds = %93
  %103 = load i32, ptr %17, align 4
  %104 = load i32, ptr %16, align 4
  %105 = add i32 %104, %103
  store i32 %105, ptr %16, align 4
  %106 = load i32, ptr %17, align 4
  %107 = load i32, ptr %18, align 4
  %108 = sub i32 %107, %106
  store i32 %108, ptr %18, align 4
  br label %109

109:                                              ; preds = %102, %93
  %110 = load i32, ptr %18, align 4
  %111 = icmp ugt i32 %110, 0
  br i1 %111, label %112, label %124

112:                                              ; preds = %109
  %113 = load ptr, ptr %10, align 8
  %114 = load ptr, ptr %11, align 8
  %115 = load ptr, ptr %9, align 8
  %116 = load i32, ptr %16, align 4
  %117 = load i32, ptr %18, align 4
  %118 = sub i32 %117, 0
  %119 = call ptr @proto_tree_add_expert(ptr noundef %113, ptr noundef %114, ptr noundef @ei_nas_5gs_extraneous_data, ptr noundef %115, i32 noundef %116, i32 noundef %118)
  %120 = load i32, ptr %18, align 4
  %121 = sub i32 %120, 0
  %122 = load i32, ptr %16, align 4
  %123 = add i32 %122, %121
  store i32 %123, ptr %16, align 4
  br label %124

124:                                              ; preds = %112, %109
  %125 = load i32, ptr %13, align 4
  %126 = trunc i32 %125 to i16
  store i16 %126, ptr %8, align 2
  store i32 1, ptr %19, align 4
  br label %127

127:                                              ; preds = %124, %90, %68, %46, %24
  call void @llvm.lifetime.end.p0(i64 4, ptr %18) #11
  call void @llvm.lifetime.end.p0(i64 4, ptr %17) #11
  call void @llvm.lifetime.end.p0(i64 4, ptr %16) #11
  %128 = load i16, ptr %8, align 2
  ret i16 %128
}