; Function Attrs: null_pointer_is_valid sspstrong uwtable
define internal noundef zeroext i16 @de_nas_5gs_mm_type_6_ie_cont(ptr noundef %0, ptr noundef %1, ptr noundef %2, i32 noundef %3, i32 noundef %4, ptr readnone captures(none) %5, i32 %6) #0 {
  %8 = icmp slt i32 %4, 1
  br i1 %8, label %34, label %9

9:                                                ; preds = %7
  %10 = tail call zeroext i16 @elem_tlv_e(ptr noundef %0, ptr noundef %1, ptr noundef %2, i8 noundef zeroext 1, i32 noundef 17, i32 noundef 100, i32 noundef %3, i32 noundef %4, ptr noundef null)
  %11 = zext i16 %10 to i32
  %12 = sub nsw i32 %4, %11
  %13 = icmp slt i32 %12, 1
  br i1 %13, label %34, label %14

14:                                               ; preds = %9
  %15 = add i32 %3, %11
  %16 = tail call zeroext i16 @elem_tlv_e(ptr noundef %0, ptr noundef %1, ptr noundef %2, i8 noundef zeroext 2, i32 noundef 17, i32 noundef 104, i32 noundef %15, i32 noundef %12, ptr noundef null)
  %17 = zext i16 %16 to i32
  %18 = sub nsw i32 %12, %17
  %19 = icmp slt i32 %18, 1
  br i1 %19, label %34, label %20

20:                                               ; preds = %14
  %21 = add i32 %15, %17
  %22 = tail call zeroext i16 @elem_tlv_e(ptr noundef %0, ptr noundef %1, ptr noundef %2, i8 noundef zeroext 3, i32 noundef 17, i32 noundef 107, i32 noundef %21, i32 noundef %18, ptr noundef nonnull @.str.1703)
  %23 = zext i16 %22 to i32
  %24 = sub nsw i32 %18, %23
  %25 = icmp slt i32 %24, 1
  br i1 %25, label %34, label %26

26:                                               ; preds = %20
  %27 = add i32 %21, %23
  %28 = tail call zeroext i16 @elem_tlv_e(ptr noundef %0, ptr noundef %1, ptr noundef %2, i8 noundef zeroext 4, i32 noundef 17, i32 noundef 107, i32 noundef %27, i32 noundef %24, ptr noundef nonnull @.str.1704)
  %29 = zext i16 %28 to i32
  %.not69 = icmp eq i32 %24, %29
  br i1 %.not69, label %34, label %30

30:                                               ; preds = %26
  %31 = sub nsw i32 %24, %29
  %32 = add i32 %27, %29
  %33 = tail call ptr @proto_tree_add_expert(ptr noundef %1, ptr noundef %2, ptr noundef nonnull @ei_nas_5gs_extraneous_data, ptr noundef %0, i32 noundef %32, i32 noundef %31)
  br label %34

34:                                               ; preds = %26, %30, %20, %14, %9, %7
  %.059 = trunc i32 %4 to i16
  ret i16 %.059
}